target datalayout = "e-m:e-p270:32:32-p271:32:32-p272:64:64-i64:64-i128:128-f80:128-n8:16:32:64-S128"
target triple = "x86_64-pc-linux-gnu"

%struct._Node = type { %union.anon.35 }
%union.anon.35 = type { %struct.BagNode }
%struct.BagNode = type { i32, i32, ptr, ptr, i32, %union.anon.37, i32, i32, i32, i32, i32 }
%union.anon.37 = type { %struct.anon.40 }
%struct.anon.40 = type { ptr, ptr }
%struct.anon.36 = type { i32, i32, ptr, ptr }
%struct.ConsAltNode = type { i32, i32, ptr, ptr, ptr }
%struct.AnchorNode = type { i32, i32, ptr, ptr, i32, i32, i32, i32, ptr }

; Function Attrs: nounwind uwtable
define internal i32 @recursive_call_check(ptr noundef %0) #0 {
  %2 = alloca i32, align 4
  %3 = alloca ptr, align 8
  %4 = alloca i32, align 4
  %5 = alloca ptr, align 8
  %6 = alloca i32, align 4
  store ptr %0, ptr %3, align 8, !tbaa !47
  call void @llvm.lifetime.start.p0(i64 4, ptr %4) #9
  %7 = load ptr, ptr %3, align 8, !tbaa !47
  %8 = getelementptr inbounds nuw %struct._Node, ptr %7, i32 0, i32 0
  %9 = getelementptr inbounds nuw %struct.anon.36, ptr %8, i32 0, i32 0
  %10 = load i32, ptr %9, align 8, !tbaa !32
  switch i32 %10, label %160 [
    i32 7, label %11
    i32 8, label %11
    i32 6, label %27
    i32 4, label %35
    i32 9, label %41
    i32 5, label %67
  ]

11:                                               ; preds = %1, %1
  store i32 0, ptr %4, align 4, !tbaa !4
  br label %12

12:                                               ; preds = %20, %11
  %13 = load ptr, ptr %3, align 8, !tbaa !47
  %14 = getelementptr inbounds nuw %struct._Node, ptr %13, i32 0, i32 0
  %15 = getelementptr inbounds nuw %struct.ConsAltNode, ptr %14, i32 0, i32 3
  %16 = load ptr, ptr %15, align 8, !tbaa !32
  %17 = call i32 @recursive_call_check(ptr noundef %16)
  %18 = load i32, ptr %4, align 4, !tbaa !4
  %19 = or i32 %18, %17
  store i32 %19, ptr %4, align 4, !tbaa !4
  br label %20

20:                                               ; preds = %12
  %21 = load ptr, ptr %3, align 8, !tbaa !47
  %22 = getelementptr inbounds nuw %struct._Node, ptr %21, i32 0, i32 0
  %23 = getelementptr inbounds nuw %struct.ConsAltNode, ptr %22, i32 0, i32 4
  %24 = load ptr, ptr %23, align 8, !tbaa !32
  store ptr %24, ptr %3, align 8, !tbaa !47
  %25 = icmp ne ptr %24, null
  br i1 %25, label %12, label %26, !llvm.loop !212

26:                                               ; preds = %20
  br label %161

27:                                               ; preds = %1
  %28 = load ptr, ptr %3, align 8, !tbaa !47
  %29 = getelementptr inbounds nuw %struct._Node, ptr %28, i32 0, i32 0
  %30 = getelementptr inbounds nuw %struct.AnchorNode, ptr %29, i32 0, i32 4
  %31 = load i32, ptr %30, align 8, !tbaa !32
  %32 = icmp slt i32 %31, 16
  br i1 %32, label %34, label %33

33:                                               ; preds = %27
  store i32 0, ptr %4, align 4, !tbaa !4
  br label %161

34:                                               ; preds = %27
  br label %35

35:                                               ; preds = %1, %34
  %36 = load ptr, ptr %3, align 8, !tbaa !47
  %37 = getelementptr inbounds nuw %struct._Node, ptr %36, i32 0, i32 0
  %38 = getelementptr inbounds nuw %struct.anon.36, ptr %37, i32 0, i32 3
  %39 = load ptr, ptr %38, align 8, !tbaa !32
  %40 = call i32 @recursive_call_check(ptr noundef %39)
  store i32 %40, ptr %4, align 4, !tbaa !4
  br label %161

41:                                               ; preds = %1
  %42 = load ptr, ptr %3, align 8, !tbaa !47
  %43 = getelementptr inbounds nuw %struct._Node, ptr %42, i32 0, i32 0
  %44 = getelementptr inbounds nuw %struct.anon.36, ptr %43, i32 0, i32 3
  %45 = load ptr, ptr %44, align 8, !tbaa !32
  %46 = call i32 @recursive_call_check(ptr noundef %45)
  store i32 %46, ptr %4, align 4, !tbaa !4
  %47 = load i32, ptr %4, align 4, !tbaa !4
  %48 = icmp ne i32 %47, 0
  br i1 %48, label %49, label %66

49:                                               ; preds = %41
  %50 = load ptr, ptr %3, align 8, !tbaa !47
  %51 = getelementptr inbounds nuw %struct._Node, ptr %50, i32 0, i32 0
  %52 = getelementptr inbounds nuw %struct.anon.36, ptr %51, i32 0, i32 3
  %53 = load ptr, ptr %52, align 8, !tbaa !32
  %54 = getelementptr inbounds nuw %struct._Node, ptr %53, i32 0, i32 0
  %55 = getelementptr inbounds nuw %struct.anon.36, ptr %54, i32 0, i32 1
  %56 = load i32, ptr %55, align 4, !tbaa !32
  %57 = and i32 %56, 8
  %58 = icmp ne i32 %57, 0
  br i1 %58, label %59, label %65

59:                                               ; preds = %49
  %60 = load ptr, ptr %3, align 8, !tbaa !47
  %61 = getelementptr inbounds nuw %struct._Node, ptr %60, i32 0, i32 0
  %62 = getelementptr inbounds nuw %struct.anon.36, ptr %61, i32 0, i32 1
  %63 = load i32, ptr %62, align 4, !tbaa !32
  %64 = or i32 %63, 64
  store i32 %64, ptr %62, align 4, !tbaa !32
  br label %65

65:                                               ; preds = %59, %49
  br label %66

66:                                               ; preds = %65, %41
  br label %161

67:                                               ; preds = %1
  call void @llvm.lifetime.start.p0(i64 8, ptr %5) #9
  %68 = load ptr, ptr %3, align 8, !tbaa !47
  %69 = getelementptr inbounds nuw %struct._Node, ptr %68, i32 0, i32 0
  store ptr %69, ptr %5, align 8, !tbaa !15
  %70 = load ptr, ptr %5, align 8, !tbaa !15
  %71 = getelementptr inbounds nuw %struct.BagNode, ptr %70, i32 0, i32 4
  %72 = load i32, ptr %71, align 8, !tbaa !156
  %73 = icmp eq i32 %72, 0
  br i1 %73, label %74, label %108

74:                                               ; preds = %67
  %75 = load ptr, ptr %3, align 8, !tbaa !47
  %76 = getelementptr inbounds nuw %struct._Node, ptr %75, i32 0, i32 0
  %77 = getelementptr inbounds nuw %struct.anon.36, ptr %76, i32 0, i32 1
  %78 = load i32, ptr %77, align 4, !tbaa !32
  %79 = and i32 %78, 16
  %80 = icmp ne i32 %79, 0
  br i1 %80, label %81, label %82

81:                                               ; preds = %74
  store i32 0, ptr %2, align 4
  store i32 1, ptr %6, align 4
  br label %157

82:                                               ; preds = %74
  %83 = load ptr, ptr %3, align 8, !tbaa !47
  %84 = getelementptr inbounds nuw %struct._Node, ptr %83, i32 0, i32 0
  %85 = getelementptr inbounds nuw %struct.anon.36, ptr %84, i32 0, i32 1
  %86 = load i32, ptr %85, align 4, !tbaa !32
  %87 = and i32 %86, 8
  %88 = icmp ne i32 %87, 0
  br i1 %88, label %89, label %90

89:                                               ; preds = %82
  store i32 1, ptr %2, align 4
  store i32 1, ptr %6, align 4
  br label %157

90:                                               ; preds = %82
  %91 = load ptr, ptr %3, align 8, !tbaa !47
  %92 = getelementptr inbounds nuw %struct._Node, ptr %91, i32 0, i32 0
  %93 = getelementptr inbounds nuw %struct.anon.36, ptr %92, i32 0, i32 1
  %94 = load i32, ptr %93, align 4, !tbaa !32
  %95 = or i32 %94, 16
  store i32 %95, ptr %93, align 4, !tbaa !32
  %96 = load ptr, ptr %3, align 8, !tbaa !47
  %97 = getelementptr inbounds nuw %struct._Node, ptr %96, i32 0, i32 0
  %98 = getelementptr inbounds nuw %struct.anon.36, ptr %97, i32 0, i32 3
  %99 = load ptr, ptr %98, align 8, !tbaa !32
  %100 = call i32 @recursive_call_check(ptr noundef %99)
  store i32 %100, ptr %4, align 4, !tbaa !4
  %101 = load ptr, ptr %3, align 8, !tbaa !47
  %102 = getelementptr inbounds nuw %struct._Node, ptr %101, i32 0, i32 0
  %103 = getelementptr inbounds nuw %struct.anon.36, ptr %102, i32 0, i32 1
  %104 = load i32, ptr %103, align 4, !tbaa !32
  %105 = and i32 %104, -17
  store i32 %105, ptr %103, align 4, !tbaa !32
  br label %106

106:                                              ; preds = %90
  br label %107

107:                                              ; preds = %106
  br label %156

108:                                              ; preds = %67
  %109 = load ptr, ptr %5, align 8, !tbaa !15
  %110 = getelementptr inbounds nuw %struct.BagNode, ptr %109, i32 0, i32 4
  %111 = load i32, ptr %110, align 8, !tbaa !156
  %112 = icmp eq i32 %111, 3
  br i1 %112, label %113, label %149

113:                                              ; preds = %108
  store i32 0, ptr %4, align 4, !tbaa !4
  %114 = load ptr, ptr %5, align 8, !tbaa !15
  %115 = getelementptr inbounds nuw %struct.BagNode, ptr %114, i32 0, i32 5
  %116 = getelementptr inbounds nuw %struct.anon.40, ptr %115, i32 0, i32 0
  %117 = load ptr, ptr %116, align 8, !tbaa !32
  %118 = icmp ne ptr %117, null
  br i1 %118, label %119, label %127

119:                                              ; preds = %113
  %120 = load ptr, ptr %5, align 8, !tbaa !15
  %121 = getelementptr inbounds nuw %struct.BagNode, ptr %120, i32 0, i32 5
  %122 = getelementptr inbounds nuw %struct.anon.40, ptr %121, i32 0, i32 0
  %123 = load ptr, ptr %122, align 8, !tbaa !32
  %124 = call i32 @recursive_call_check(ptr noundef %123)
  %125 = load i32, ptr %4, align 4, !tbaa !4
  %126 = or i32 %125, %124
  store i32 %126, ptr %4, align 4, !tbaa !4
  br label %127

127:                                              ; preds = %119, %113
  %128 = load ptr, ptr %5, align 8, !tbaa !15
  %129 = getelementptr inbounds nuw %struct.BagNode, ptr %128, i32 0, i32 5
  %130 = getelementptr inbounds nuw %struct.anon.40, ptr %129, i32 0, i32 1
  %131 = load ptr, ptr %130, align 8, !tbaa !32
  %132 = icmp ne ptr %131, null
  br i1 %132, label %133, label %141

133:                                              ; preds = %127
  %134 = load ptr, ptr %5, align 8, !tbaa !15
  %135 = getelementptr inbounds nuw %struct.BagNode, ptr %134, i32 0, i32 5
  %136 = getelementptr inbounds nuw %struct.anon.40, ptr %135, i32 0, i32 1
  %137 = load ptr, ptr %136, align 8, !tbaa !32
  %138 = call i32 @recursive_call_check(ptr noundef %137)
  %139 = load i32, ptr %4, align 4, !tbaa !4
  %140 = or i32 %139, %138
  store i32 %140, ptr %4, align 4, !tbaa !4
  br label %141

141:                                              ; preds = %133, %127
  %142 = load ptr, ptr %3, align 8, !tbaa !47
  %143 = getelementptr inbounds nuw %struct._Node, ptr %142, i32 0, i32 0
  %144 = getelementptr inbounds nuw %struct.anon.36, ptr %143, i32 0, i32 3
  %145 = load ptr, ptr %144, align 8, !tbaa !32
  %146 = call i32 @recursive_call_check(ptr noundef %145)
  %147 = load i32, ptr %4, align 4, !tbaa !4
  %148 = or i32 %147, %146
  store i32 %148, ptr %4, align 4, !tbaa !4
  br label %155

149:                                              ; preds = %108
  %150 = load ptr, ptr %3, align 8, !tbaa !47
  %151 = getelementptr inbounds nuw %struct._Node, ptr %150, i32 0, i32 0
  %152 = getelementptr inbounds nuw %struct.anon.36, ptr %151, i32 0, i32 3
  %153 = load ptr, ptr %152, align 8, !tbaa !32
  %154 = call i32 @recursive_call_check(ptr noundef %153)
  store i32 %154, ptr %4, align 4, !tbaa !4
  br label %155

155:                                              ; preds = %149, %141
  br label %156

156:                                              ; preds = %155, %107
  store i32 0, ptr %6, align 4
  br label %157

157:                                              ; preds = %156, %89, %81
  call void @llvm.lifetime.end.p0(i64 8, ptr %5) #9
  %158 = load i32, ptr %6, align 4
  switch i32 %158, label %163 [
    i32 0, label %159
  ]

159:                                              ; preds = %157
  br label %161

160:                                              ; preds = %1
  store i32 0, ptr %4, align 4, !tbaa !4
  br label %161

161:                                              ; preds = %160, %159, %66, %35, %33, %26
  %162 = load i32, ptr %4, align 4, !tbaa !4
  store i32 %162, ptr %2, align 4
  store i32 1, ptr %6, align 4
  br label %163

163:                                              ; preds = %161, %157
  call void @llvm.lifetime.end.p0(i64 4, ptr %4) #9
  %164 = load i32, ptr %2, align 4
  ret i32 %164
}