; Function Attrs: nofree nosync nounwind memory(readwrite, inaccessiblemem: none) uwtable
define internal fastcc range(i32 0, 2) i32 @recursive_call_check(ptr noundef captures(none) %0) unnamed_addr #15 {
  br label %tailrecurse.outer

tailrecurse.outer:                                ; preds = %54, %1
  %accumulator.tr.ph = phi i32 [ %57, %54 ], [ 0, %1 ]
  %.tr.ph = phi ptr [ %56, %54 ], [ %0, %1 ]
  br label %tailrecurse

tailrecurse:                                      ; preds = %tailrecurse.backedge, %tailrecurse.outer
  %.tr = phi ptr [ %.tr.ph, %tailrecurse.outer ], [ %.tr.be, %tailrecurse.backedge ]
  %2 = load i32, ptr %.tr, align 8, !tbaa !20
  switch i32 %2, label %common.ret [
    i32 7, label %.preheader
    i32 8, label %.preheader
    i32 6, label %10
    i32 4, label %tailrecurse.backedge
    i32 9, label %14
    i32 5, label %27
  ]

.preheader:                                       ; preds = %tailrecurse, %tailrecurse
  br label %3

3:                                                ; preds = %.preheader, %3
  %.032 = phi ptr [ %9, %3 ], [ %.tr, %.preheader ]
  %.030 = phi i32 [ %7, %3 ], [ 0, %.preheader ]
  %4 = getelementptr inbounds nuw i8, ptr %.032, i64 16
  %5 = load ptr, ptr %4, align 8, !tbaa !20
  %6 = tail call fastcc i32 @recursive_call_check(ptr noundef %5)
  %7 = or i32 %6, %.030
  %8 = getelementptr inbounds nuw i8, ptr %.032, i64 24
  %9 = load ptr, ptr %8, align 8, !tbaa !20
  %.not43 = icmp eq ptr %9, null
  br i1 %.not43, label %common.ret, label %3, !llvm.loop !257

10:                                               ; preds = %tailrecurse
  %11 = getelementptr inbounds nuw i8, ptr %.tr, i64 24
  %12 = load i32, ptr %11, align 8, !tbaa !20
  %13 = icmp slt i32 %12, 16
  br i1 %13, label %tailrecurse.backedge, label %common.ret

tailrecurse.backedge:                             ; preds = %27, %tailrecurse, %10
  %.tr.be.in = getelementptr inbounds nuw i8, ptr %.tr, i64 16
  %.tr.be = load ptr, ptr %.tr.be.in, align 8, !tbaa !20
  br label %tailrecurse

14:                                               ; preds = %tailrecurse
  %15 = getelementptr inbounds nuw i8, ptr %.tr, i64 16
  %16 = load ptr, ptr %15, align 8, !tbaa !20
  %17 = tail call fastcc i32 @recursive_call_check(ptr noundef %16)
  %.not41 = icmp eq i32 %17, 0
  br i1 %.not41, label %common.ret, label %18

18:                                               ; preds = %14
  %19 = load ptr, ptr %15, align 8, !tbaa !20
  %20 = getelementptr inbounds nuw i8, ptr %19, i64 4
  %21 = load i32, ptr %20, align 4, !tbaa !20
  %22 = and i32 %21, 8
  %.not42 = icmp eq i32 %22, 0
  br i1 %.not42, label %common.ret, label %23

23:                                               ; preds = %18
  %24 = getelementptr inbounds nuw i8, ptr %.tr, i64 4
  %25 = load i32, ptr %24, align 4, !tbaa !20
  %26 = or i32 %25, 64
  store i32 %26, ptr %24, align 4, !tbaa !20
  br label %common.ret

27:                                               ; preds = %tailrecurse
  %28 = getelementptr inbounds nuw i8, ptr %.tr, i64 24
  %29 = load i32, ptr %28, align 8, !tbaa !98
  switch i32 %29, label %tailrecurse.backedge [
    i32 0, label %30
    i32 3, label %43
  ]

30:                                               ; preds = %27
  %31 = getelementptr inbounds nuw i8, ptr %.tr, i64 4
  %32 = load i32, ptr %31, align 4, !tbaa !20
  %33 = and i32 %32, 16
  %.not39 = icmp eq i32 %33, 0
  br i1 %.not39, label %34, label %common.ret

34:                                               ; preds = %30
  %35 = and i32 %32, 8
  %.not40 = icmp eq i32 %35, 0
  br i1 %.not40, label %36, label %common.ret

common.ret:                                       ; preds = %tailrecurse, %10, %3, %14, %23, %18, %30, %34, %36
  %.pn = phi i32 [ %40, %36 ], [ 1, %23 ], [ 1, %18 ], [ 0, %14 ], [ 0, %30 ], [ 1, %34 ], [ %7, %3 ], [ 0, %10 ], [ 0, %tailrecurse ]
  %common.ret.op = or i32 %.pn, %accumulator.tr.ph
  ret i32 %common.ret.op

36:                                               ; preds = %34
  %37 = or disjoint i32 %32, 16
  store i32 %37, ptr %31, align 4, !tbaa !20
  %38 = getelementptr inbounds nuw i8, ptr %.tr, i64 16
  %39 = load ptr, ptr %38, align 8, !tbaa !20
  %40 = tail call fastcc i32 @recursive_call_check(ptr noundef %39)
  %41 = load i32, ptr %31, align 4, !tbaa !20
  %42 = and i32 %41, -17
  store i32 %42, ptr %31, align 4, !tbaa !20
  br label %common.ret

43:                                               ; preds = %27
  %44 = getelementptr inbounds nuw i8, ptr %.tr, i64 32
  %45 = load ptr, ptr %44, align 8, !tbaa !20
  %.not = icmp eq ptr %45, null
  br i1 %.not, label %48, label %46

46:                                               ; preds = %43
  %47 = tail call fastcc i32 @recursive_call_check(ptr noundef nonnull %45)
  br label %48

48:                                               ; preds = %46, %43
  %.4 = phi i32 [ %47, %46 ], [ 0, %43 ]
  %49 = getelementptr inbounds nuw i8, ptr %.tr, i64 40
  %50 = load ptr, ptr %49, align 8, !tbaa !20
  %.not38 = icmp eq ptr %50, null
  br i1 %.not38, label %54, label %51

51:                                               ; preds = %48
  %52 = tail call fastcc i32 @recursive_call_check(ptr noundef nonnull %50)
  %53 = or i32 %52, %.4
  br label %54

54:                                               ; preds = %51, %48
  %.5 = phi i32 [ %53, %51 ], [ %.4, %48 ]
  %55 = getelementptr inbounds nuw i8, ptr %.tr, i64 16
  %56 = load ptr, ptr %55, align 8, !tbaa !20
  %57 = or i32 %.5, %accumulator.tr.ph
  br label %tailrecurse.outer
}